target datalayout = "e-m:e-p270:32:32-p271:32:32-p272:64:64-i64:64-i128:128-f80:128-n8:16:32:64-S128"
target triple = "x86_64-pc-linux-gnu"

%struct.hwloc_obj = type { i32, ptr, i32, ptr, i64, ptr, i32, i32, ptr, ptr, ptr, i32, ptr, ptr, i32, ptr, ptr, ptr, i32, i32, ptr, i32, ptr, i32, ptr, ptr, ptr, ptr, ptr, ptr, i32, ptr, i64 }
%struct.hwloc_cache_attr_s = type { i64, i32, i32, i32, i32 }

@prte_hwloc_topology = external global ptr, align 8
@prte_cache_line_size = external global i32, align 4

; Function Attrs: inlinehint nounwind willreturn memory(read) uwtable
define internal ptr @hwloc_get_obj_by_type(ptr noundef %0, i32 noundef %1, i32 noundef %2) #2 {
  %4 = alloca ptr, align 8
  %5 = alloca ptr, align 8
  %6 = alloca i32, align 4
  %7 = alloca i32, align 4
  %8 = alloca i32, align 4
  %9 = alloca i32, align 4
  store ptr %0, ptr %5, align 8, !tbaa !3
  store i32 %1, ptr %6, align 4, !tbaa !19
  store i32 %2, ptr %7, align 4, !tbaa !19
  call void @llvm.lifetime.start.p0(i64 4, ptr %8) #10
  %10 = load ptr, ptr %5, align 8, !tbaa !3
  %11 = load i32, ptr %6, align 4, !tbaa !19
  %12 = call i32 @hwloc_get_type_depth(ptr noundef %10, i32 noundef %11)
  store i32 %12, ptr %8, align 4, !tbaa !19
  %13 = load i32, ptr %8, align 4, !tbaa !19
  %14 = icmp eq i32 %13, -1
  br i1 %14, label %15, label %16

15:                                               ; preds = %3
  store ptr null, ptr %4, align 8
  store i32 1, ptr %9, align 4
  br label %25

16:                                               ; preds = %3
  %17 = load i32, ptr %8, align 4, !tbaa !19
  %18 = icmp eq i32 %17, -2
  br i1 %18, label %19, label %20

19:                                               ; preds = %16
  store ptr null, ptr %4, align 8
  store i32 1, ptr %9, align 4
  br label %25

20:                                               ; preds = %16
  %21 = load ptr, ptr %5, align 8, !tbaa !3
  %22 = load i32, ptr %8, align 4, !tbaa !19
  %23 = load i32, ptr %7, align 4, !tbaa !19
  %24 = call ptr @hwloc_get_obj_by_depth(ptr noundef %21, i32 noundef %22, i32 noundef %23) #11
  store ptr %24, ptr %4, align 8
  store i32 1, ptr %9, align 4
  br label %25

25:                                               ; preds = %20, %19, %15
  call void @llvm.lifetime.end.p0(i64 4, ptr %8) #10
  %26 = load ptr, ptr %4, align 8
  ret ptr %26
}

; Function Attrs: nounwind uwtable
define internal void @fill_cache_line_size() #0 {
  %1 = alloca i8, align 1
  %2 = alloca i32, align 4
  %3 = alloca i32, align 4
  %4 = alloca i32, align 4
  %5 = alloca i32, align 4
  %6 = alloca ptr, align 8
  call void @llvm.lifetime.start.p0(i64 1, ptr %1) #10
  store i8 0, ptr %1, align 1, !tbaa !20
  call void @llvm.lifetime.start.p0(i64 4, ptr %2) #10
  store i32 0, ptr %2, align 4, !tbaa !19
  call void @llvm.lifetime.start.p0(i64 4, ptr %3) #10
  store i32 2, ptr %3, align 4, !tbaa !19
  call void @llvm.lifetime.start.p0(i64 4, ptr %4) #10
  store i32 0, ptr %4, align 4, !tbaa !19
  call void @llvm.lifetime.start.p0(i64 4, ptr %5) #10
  store i32 5, ptr %5, align 4, !tbaa !19
  call void @llvm.lifetime.start.p0(i64 8, ptr %6) #10
  store i32 4096, ptr %2, align 4, !tbaa !19
  br label %7

7:                                                ; preds = %58, %0
  %8 = load i32, ptr %3, align 4, !tbaa !19
  %9 = icmp ugt i32 %8, 0
  br i1 %9, label %10, label %14

10:                                               ; preds = %7
  %11 = load i8, ptr %1, align 1, !tbaa !20, !range !22, !noundef !23
  %12 = trunc i8 %11 to i1
  %13 = xor i1 %12, true
  br label %14

14:                                               ; preds = %10, %7
  %15 = phi i1 [ false, %7 ], [ %13, %10 ]
  br i1 %15, label %16, label %59

16:                                               ; preds = %14
  store i32 0, ptr %4, align 4, !tbaa !19
  br label %17

17:                                               ; preds = %55, %16
  br label %18

18:                                               ; preds = %17
  %19 = load ptr, ptr @prte_hwloc_topology, align 8, !tbaa !3
  %20 = load i32, ptr %5, align 4, !tbaa !19
  %21 = load i32, ptr %4, align 4, !tbaa !19
  %22 = call ptr @hwloc_get_obj_by_type(ptr noundef %19, i32 noundef %20, i32 noundef %21) #11
  store ptr %22, ptr %6, align 8, !tbaa !8
  %23 = load ptr, ptr %6, align 8, !tbaa !8
  %24 = icmp eq ptr null, %23
  br i1 %24, label %25, label %28

25:                                               ; preds = %18
  %26 = load i32, ptr %3, align 4, !tbaa !19
  %27 = add i32 %26, -1
  store i32 %27, ptr %3, align 4, !tbaa !19
  store i32 4, ptr %5, align 4, !tbaa !19
  br label %58

28:                                               ; preds = %18
  %29 = load ptr, ptr %6, align 8, !tbaa !8
  %30 = getelementptr inbounds nuw %struct.hwloc_obj, ptr %29, i32 0, i32 5
  %31 = load ptr, ptr %30, align 8, !tbaa !88
  %32 = icmp ne ptr null, %31
  br i1 %32, label %33, label %54

33:                                               ; preds = %28
  %34 = load ptr, ptr %6, align 8, !tbaa !8
  %35 = getelementptr inbounds nuw %struct.hwloc_obj, ptr %34, i32 0, i32 5
  %36 = load ptr, ptr %35, align 8, !tbaa !88
  %37 = getelementptr inbounds nuw %struct.hwloc_cache_attr_s, ptr %36, i32 0, i32 2
  %38 = load i32, ptr %37, align 4, !tbaa !89
  %39 = icmp ugt i32 %38, 0
  br i1 %39, label %40, label %54

40:                                               ; preds = %33
  %41 = load i32, ptr %2, align 4, !tbaa !19
  %42 = load ptr, ptr %6, align 8, !tbaa !8
  %43 = getelementptr inbounds nuw %struct.hwloc_obj, ptr %42, i32 0, i32 5
  %44 = load ptr, ptr %43, align 8, !tbaa !88
  %45 = getelementptr inbounds nuw %struct.hwloc_cache_attr_s, ptr %44, i32 0, i32 2
  %46 = load i32, ptr %45, align 4, !tbaa !89
  %47 = icmp ugt i32 %41, %46
  br i1 %47, label %48, label %54

48:                                               ; preds = %40
  %49 = load ptr, ptr %6, align 8, !tbaa !8
  %50 = getelementptr inbounds nuw %struct.hwloc_obj, ptr %49, i32 0, i32 5
  %51 = load ptr, ptr %50, align 8, !tbaa !88
  %52 = getelementptr inbounds nuw %struct.hwloc_cache_attr_s, ptr %51, i32 0, i32 2
  %53 = load i32, ptr %52, align 4, !tbaa !89
  store i32 %53, ptr %2, align 4, !tbaa !19
  store i8 1, ptr %1, align 1, !tbaa !20
  br label %54

54:                                               ; preds = %48, %40, %33, %28
  br label %55

55:                                               ; preds = %54
  %56 = load i32, ptr %4, align 4, !tbaa !19
  %57 = add i32 %56, 1
  store i32 %57, ptr %4, align 4, !tbaa !19
  br label %17

58:                                               ; preds = %25
  br label %7, !llvm.loop !90

59:                                               ; preds = %14
  %60 = load i8, ptr %1, align 1, !tbaa !20, !range !22, !noundef !23
  %61 = trunc i8 %60 to i1
  br i1 %61, label %62, label %64

62:                                               ; preds = %59
  %63 = load i32, ptr %2, align 4, !tbaa !19
  store i32 %63, ptr @prte_cache_line_size, align 4, !tbaa !19
  br label %64

64:                                               ; preds = %62, %59
  call void @llvm.lifetime.end.p0(i64 8, ptr %6) #10
  call void @llvm.lifetime.end.p0(i64 4, ptr %5) #10
  call void @llvm.lifetime.end.p0(i64 4, ptr %4) #10
  call void @llvm.lifetime.end.p0(i64 4, ptr %3) #10
  call void @llvm.lifetime.end.p0(i64 4, ptr %2) #10
  call void @llvm.lifetime.end.p0(i64 1, ptr %1) #10
  ret void
}