; Function Attrs: nounwind uwtable
define internal fastcc void @fill_cache_line_size() unnamed_addr #0 {
  br label %.preheader.outer

.preheader.outer:                                 ; preds = %hwloc_get_obj_by_type.exit.thread, %0
  %.01335.ph = phi i32 [ 4, %hwloc_get_obj_by_type.exit.thread ], [ 5, %0 ]
  %.01534.ph = phi i32 [ %7, %hwloc_get_obj_by_type.exit.thread ], [ 2, %0 ]
  %.01633.ph = phi i32 [ %.117.lcssa, %hwloc_get_obj_by_type.exit.thread ], [ 4096, %0 ]
  br label %.preheader

.preheader:                                       ; preds = %.preheader.outer, %hwloc_get_obj_by_type.exit.thread.thread
  %.01335 = phi i32 [ 4, %hwloc_get_obj_by_type.exit.thread.thread ], [ %.01335.ph, %.preheader.outer ]
  %.01534 = phi i32 [ %9, %hwloc_get_obj_by_type.exit.thread.thread ], [ %.01534.ph, %.preheader.outer ]
  %1 = load ptr, ptr @prte_hwloc_topology, align 8, !tbaa !50
  %2 = tail call i32 @hwloc_get_type_depth(ptr noundef %1, i32 noundef range(i32 14, 13) %.01335) #18
  %switch.i26 = icmp ugt i32 %2, -3
  br i1 %switch.i26, label %hwloc_get_obj_by_type.exit.thread.thread, label %hwloc_get_obj_by_type.exit

hwloc_get_obj_by_type.exit:                       ; preds = %.preheader, %18
  %3 = phi i32 [ %21, %18 ], [ %2, %.preheader ]
  %4 = phi ptr [ %20, %18 ], [ %1, %.preheader ]
  %.129 = phi i1 [ %.2, %18 ], [ false, %.preheader ]
  %.01428 = phi i32 [ %19, %18 ], [ 0, %.preheader ]
  %.11727 = phi i32 [ %.218, %18 ], [ %.01633.ph, %.preheader ]
  %5 = tail call ptr @hwloc_get_obj_by_depth(ptr noundef %4, i32 noundef %3, i32 noundef %.01428) #19
  %6 = icmp eq ptr %5, null
  br i1 %6, label %hwloc_get_obj_by_type.exit.thread, label %11

hwloc_get_obj_by_type.exit.thread:                ; preds = %hwloc_get_obj_by_type.exit, %18
  %.117.lcssa = phi i32 [ %.11727, %hwloc_get_obj_by_type.exit ], [ %.218, %18 ]
  %.1.lcssa = phi i1 [ %.129, %hwloc_get_obj_by_type.exit ], [ %.2, %18 ]
  %7 = add nsw i32 %.01534, -1
  %8 = icmp eq i32 %7, 0
  %.not22 = select i1 %8, i1 true, i1 %.1.lcssa
  br i1 %.not22, label %22, label %.preheader.outer, !llvm.loop !52

hwloc_get_obj_by_type.exit.thread.thread:         ; preds = %.preheader
  %9 = add nsw i32 %.01534, -1
  %10 = icmp eq i32 %9, 0
  br i1 %10, label %.thread, label %.preheader, !llvm.loop !52

11:                                               ; preds = %hwloc_get_obj_by_type.exit
  %12 = getelementptr inbounds nuw i8, ptr %5, i64 40
  %13 = load ptr, ptr %12, align 8, !tbaa !53
  %.not = icmp eq ptr %13, null
  br i1 %.not, label %18, label %14

14:                                               ; preds = %11
  %15 = getelementptr inbounds nuw i8, ptr %13, i64 12
  %16 = load i32, ptr %15, align 4, !tbaa !54
  %.not23 = icmp ne i32 %16, 0
  %17 = icmp ugt i32 %.11727, %16
  %or.cond = select i1 %.not23, i1 %17, i1 false
  %spec.select = select i1 %or.cond, i32 %16, i32 %.11727
  %spec.select24 = select i1 %or.cond, i1 true, i1 %.129
  br label %18

18:                                               ; preds = %14, %11
  %.218 = phi i32 [ %.11727, %11 ], [ %spec.select, %14 ]
  %.2 = phi i1 [ %.129, %11 ], [ %spec.select24, %14 ]
  %19 = add i32 %.01428, 1
  %20 = load ptr, ptr @prte_hwloc_topology, align 8, !tbaa !50
  %21 = tail call i32 @hwloc_get_type_depth(ptr noundef %20, i32 noundef range(i32 14, 13) %.01335) #18
  %switch.i = icmp ugt i32 %21, -3
  br i1 %switch.i, label %hwloc_get_obj_by_type.exit.thread, label %hwloc_get_obj_by_type.exit

22:                                               ; preds = %hwloc_get_obj_by_type.exit.thread
  br i1 %.1.lcssa, label %23, label %.thread

23:                                               ; preds = %22
  store i32 %.117.lcssa, ptr @prte_cache_line_size, align 4, !tbaa !16
  br label %.thread

.thread:                                          ; preds = %hwloc_get_obj_by_type.exit.thread.thread, %23, %22
  ret void
}